; Function Attrs: mustprogress uwtable
define hidden void @_ZN7datalog27mk_quantifier_instantiation13yield_bindingEP10quantifierR10ref_vectorI4expr11ast_managerE(ptr noundef nonnull align 8 dereferenceable(384) %0, ptr noundef %1, ptr noundef nonnull align 8 dereferenceable(16) %2) local_unnamed_addr #3 align 2 personality ptr @__gxx_personality_v0 {
  %4 = alloca %class.obj_ref, align 8
  %5 = getelementptr inbounds nuw i8, ptr %0, i64 352
  %6 = load ptr, ptr %5, align 8, !tbaa !213
  %7 = icmp eq ptr %6, null
  br i1 %7, label %_ZN6vectorIP4exprLb0EjE7reverseEv.exit, label %_ZNK6vectorIP4exprLb0EjE4sizeEv.exit.i

_ZNK6vectorIP4exprLb0EjE4sizeEv.exit.i:           ; preds = %3
  %8 = getelementptr inbounds i8, ptr %6, i64 -4
  %9 = load i32, ptr %8, align 4, !tbaa !235
  %.not.i = icmp ult i32 %9, 2
  br i1 %.not.i, label %_ZN6vectorIP4exprLb0EjE7reverseEv.exit, label %.lr.ph.preheader.i

.lr.ph.preheader.i:                               ; preds = %_ZNK6vectorIP4exprLb0EjE4sizeEv.exit.i
  %10 = lshr i32 %9, 1
  %wide.trip.count.i = zext nneg i32 %10 to i64
  br label %.lr.ph.i

.lr.ph.i:                                         ; preds = %.lr.ph.i, %.lr.ph.preheader.i
  %indvars.iv.i = phi i64 [ 0, %.lr.ph.preheader.i ], [ %indvars.iv.next.i, %.lr.ph.i ]
  %11 = getelementptr inbounds nuw ptr, ptr %6, i64 %indvars.iv.i
  %12 = trunc nuw nsw i64 %indvars.iv.i to i32
  %13 = xor i32 %12, -1
  %14 = add i32 %9, %13
  %15 = zext i32 %14 to i64
  %16 = getelementptr inbounds nuw ptr, ptr %6, i64 %15
  %17 = load ptr, ptr %11, align 8, !tbaa !236
  %18 = load ptr, ptr %16, align 8, !tbaa !236
  store ptr %18, ptr %11, align 8, !tbaa !236
  store ptr %17, ptr %16, align 8, !tbaa !236
  %indvars.iv.next.i = add nuw nsw i64 %indvars.iv.i, 1
  %exitcond.not.i = icmp eq i64 %indvars.iv.next.i, %wide.trip.count.i
  br i1 %exitcond.not.i, label %_ZN6vectorIP4exprLb0EjE7reverseEv.exit, label %.lr.ph.i, !llvm.loop !317

_ZN6vectorIP4exprLb0EjE7reverseEv.exit:           ; preds = %.lr.ph.i, %3, %_ZNK6vectorIP4exprLb0EjE4sizeEv.exit.i
  call void @llvm.lifetime.start.p0(i64 16, ptr nonnull %4) #18
  %19 = getelementptr inbounds nuw i8, ptr %0, i64 24
  %20 = load ptr, ptr %19, align 8, !tbaa !255
  call void @_Z11instantiateR11ast_managerP10quantifierPKP4expr(ptr dead_on_unwind nonnull writable sret(%class.obj_ref) align 8 %4, ptr noundef nonnull align 8 dereferenceable(976) %20, ptr noundef %1, ptr noundef %6)
  %21 = load ptr, ptr %5, align 8, !tbaa !213
  %22 = icmp eq ptr %21, null
  br i1 %22, label %_ZN6vectorIP4exprLb0EjE7reverseEv.exit12, label %_ZNK6vectorIP4exprLb0EjE4sizeEv.exit.i4

_ZNK6vectorIP4exprLb0EjE4sizeEv.exit.i4:          ; preds = %_ZN6vectorIP4exprLb0EjE7reverseEv.exit
  %23 = getelementptr inbounds i8, ptr %21, i64 -4
  %24 = load i32, ptr %23, align 4, !tbaa !235
  %.not.i5 = icmp ult i32 %24, 2
  br i1 %.not.i5, label %_ZN6vectorIP4exprLb0EjE7reverseEv.exit12, label %.lr.ph.preheader.i6

.lr.ph.preheader.i6:                              ; preds = %_ZNK6vectorIP4exprLb0EjE4sizeEv.exit.i4
  %25 = lshr i32 %24, 1
  %wide.trip.count.i7 = zext nneg i32 %25 to i64
  br label %.lr.ph.i8

.lr.ph.i8:                                        ; preds = %.lr.ph.i8, %.lr.ph.preheader.i6
  %indvars.iv.i9 = phi i64 [ 0, %.lr.ph.preheader.i6 ], [ %indvars.iv.next.i10, %.lr.ph.i8 ]
  %26 = getelementptr inbounds nuw ptr, ptr %21, i64 %indvars.iv.i9
  %27 = trunc nuw nsw i64 %indvars.iv.i9 to i32
  %28 = xor i32 %27, -1
  %29 = add i32 %24, %28
  %30 = zext i32 %29 to i64
  %31 = getelementptr inbounds nuw ptr, ptr %21, i64 %30
  %32 = load ptr, ptr %26, align 8, !tbaa !236
  %33 = load ptr, ptr %31, align 8, !tbaa !236
  store ptr %33, ptr %26, align 8, !tbaa !236
  store ptr %32, ptr %31, align 8, !tbaa !236
  %indvars.iv.next.i10 = add nuw nsw i64 %indvars.iv.i9, 1
  %exitcond.not.i11 = icmp eq i64 %indvars.iv.next.i10, %wide.trip.count.i7
  br i1 %exitcond.not.i11, label %_ZN6vectorIP4exprLb0EjE7reverseEv.exit12, label %.lr.ph.i8, !llvm.loop !317

_ZN6vectorIP4exprLb0EjE7reverseEv.exit12:         ; preds = %.lr.ph.i8, %_ZN6vectorIP4exprLb0EjE7reverseEv.exit, %_ZNK6vectorIP4exprLb0EjE4sizeEv.exit.i4
  %34 = getelementptr inbounds nuw i8, ptr %0, i64 176
  %35 = load ptr, ptr %4, align 8, !tbaa !263
  invoke void @_ZN17expr_safe_replaceclEP4exprR7obj_refIS0_11ast_managerE(ptr noundef nonnull align 8 dereferenceable(136) %34, ptr noundef %35, ptr noundef nonnull align 8 dereferenceable(16) %4)
          to label %_ZN17expr_safe_replaceclER7obj_refI4expr11ast_managerE.exit unwind label %70

_ZN17expr_safe_replaceclER7obj_refI4expr11ast_managerE.exit: ; preds = %_ZN6vectorIP4exprLb0EjE7reverseEv.exit12
  %36 = load ptr, ptr %4, align 8, !tbaa !263
  %.not.i.i.i.i = icmp eq ptr %36, null
  br i1 %.not.i.i.i.i, label %_ZN15ref_vector_coreI4expr19ref_manager_wrapperIS0_11ast_managerEE7inc_refEPS0_.exit.i, label %37

37:                                               ; preds = %_ZN17expr_safe_replaceclER7obj_refI4expr11ast_managerE.exit
  %38 = getelementptr inbounds nuw i8, ptr %36, i64 8
  %39 = load i32, ptr %38, align 4, !tbaa !238
  %40 = add i32 %39, 1
  store i32 %40, ptr %38, align 4, !tbaa !238
  br label %_ZN15ref_vector_coreI4expr19ref_manager_wrapperIS0_11ast_managerEE7inc_refEPS0_.exit.i

_ZN15ref_vector_coreI4expr19ref_manager_wrapperIS0_11ast_managerEE7inc_refEPS0_.exit.i: ; preds = %37, %_ZN17expr_safe_replaceclER7obj_refI4expr11ast_managerE.exit
  %41 = getelementptr inbounds nuw i8, ptr %2, i64 8
  %42 = load ptr, ptr %41, align 8, !tbaa !213
  %43 = icmp eq ptr %42, null
  br i1 %43, label %50, label %44

44:                                               ; preds = %_ZN15ref_vector_coreI4expr19ref_manager_wrapperIS0_11ast_managerEE7inc_refEPS0_.exit.i
  %45 = getelementptr inbounds i8, ptr %42, i64 -4
  %46 = load i32, ptr %45, align 4, !tbaa !235
  %47 = getelementptr inbounds i8, ptr %42, i64 -8
  %48 = load i32, ptr %47, align 4, !tbaa !235
  %49 = icmp eq i32 %46, %48
  br i1 %49, label %50, label %51

50:                                               ; preds = %44, %_ZN15ref_vector_coreI4expr19ref_manager_wrapperIS0_11ast_managerEE7inc_refEPS0_.exit.i
  invoke void @_ZN6vectorIP4exprLb0EjE13expand_vectorEv(ptr noundef nonnull align 8 dereferenceable(8) %41)
          to label %.noexc unwind label %70

.noexc:                                           ; preds = %50
  %.pre.i.i = load ptr, ptr %41, align 8, !tbaa !213
  %.phi.trans.insert.i.i = getelementptr inbounds i8, ptr %.pre.i.i, i64 -4
  %.pre2.i.i = load i32, ptr %.phi.trans.insert.i.i, align 4, !tbaa !235
  br label %51

51:                                               ; preds = %.noexc, %44
  %52 = phi i32 [ %.pre2.i.i, %.noexc ], [ %46, %44 ]
  %53 = phi ptr [ %.pre.i.i, %.noexc ], [ %42, %44 ]
  %54 = getelementptr inbounds i8, ptr %53, i64 -4
  %55 = zext i32 %52 to i64
  %56 = getelementptr inbounds nuw ptr, ptr %53, i64 %55
  store ptr %36, ptr %56, align 8, !tbaa !236
  %57 = add i32 %52, 1
  store i32 %57, ptr %54, align 4, !tbaa !235
  %58 = load ptr, ptr %4, align 8, !tbaa !263
  %.not.i.i = icmp eq ptr %58, null
  br i1 %.not.i.i, label %_ZN7obj_refI4expr11ast_managerED2Ev.exit, label %59

59:                                               ; preds = %51
  %60 = getelementptr inbounds nuw i8, ptr %4, i64 8
  %61 = load ptr, ptr %60, align 8, !tbaa !278
  %62 = getelementptr inbounds nuw i8, ptr %58, i64 8
  %63 = load i32, ptr %62, align 4, !tbaa !238
  %64 = add i32 %63, -1
  store i32 %64, ptr %62, align 4, !tbaa !238
  %65 = icmp eq i32 %64, 0
  br i1 %65, label %66, label %_ZN7obj_refI4expr11ast_managerED2Ev.exit

66:                                               ; preds = %59
  invoke void @_ZN11ast_manager11delete_nodeEP3ast(ptr noundef nonnull align 8 dereferenceable(976) %61, ptr noundef nonnull %58)
          to label %_ZN7obj_refI4expr11ast_managerED2Ev.exit unwind label %67

67:                                               ; preds = %66
  %68 = landingpad { ptr, i32 }
          catch ptr null
  %69 = extractvalue { ptr, i32 } %68, 0
  call void @__clang_call_terminate(ptr %69) #19
  unreachable

_ZN7obj_refI4expr11ast_managerED2Ev.exit:         ; preds = %51, %59, %66
  call void @llvm.lifetime.end.p0(i64 16, ptr nonnull %4) #18
  ret void

70:                                               ; preds = %50, %_ZN6vectorIP4exprLb0EjE7reverseEv.exit12
  %71 = landingpad { ptr, i32 }
          cleanup
  call void @_ZN7obj_refI4expr11ast_managerED2Ev(ptr noundef nonnull align 8 dereferenceable(16) %4) #18
  call void @llvm.lifetime.end.p0(i64 16, ptr nonnull %4) #18
  resume { ptr, i32 } %71
}